; Function Attrs: nounwind uwtable
define void @Wlc_NtkMuxTree3DecsFree(ptr noundef %0, ptr noundef readonly captures(none) %1) local_unnamed_addr #2 {
  %3 = tail call i64 @strlen(ptr noundef nonnull dereferenceable(1) %1) #24
  %4 = trunc i64 %3 to i32
  %5 = icmp sgt i32 %4, 0
  br i1 %5, label %.lr.ph.preheader, label %._crit_edge

.lr.ph.preheader:                                 ; preds = %2
  %6 = and i64 %3, 2147483647
  br label %.lr.ph

.lr.ph:                                           ; preds = %.lr.ph.preheader, %Vec_IntFree.exit
  %indvars.iv = phi i64 [ %6, %.lr.ph.preheader ], [ %indvars.iv.next, %Vec_IntFree.exit ]
  %indvars.iv.next = add nsw i64 %indvars.iv, -1
  %7 = getelementptr inbounds nuw ptr, ptr %0, i64 %indvars.iv.next
  %8 = load ptr, ptr %7, align 8, !tbaa !37
  %9 = getelementptr inbounds nuw i8, ptr %8, i64 8
  %10 = load ptr, ptr %9, align 8, !tbaa !22
  %.not.i = icmp eq ptr %10, null
  br i1 %.not.i, label %Vec_IntFree.exit, label %11

11:                                               ; preds = %.lr.ph
  tail call void @free(ptr noundef nonnull %10) #23
  br label %Vec_IntFree.exit

Vec_IntFree.exit:                                 ; preds = %.lr.ph, %11
  tail call void @free(ptr noundef nonnull %8) #23
  %12 = icmp samesign ugt i64 %indvars.iv, 1
  br i1 %12, label %.lr.ph, label %._crit_edge.thread, !llvm.loop !45

._crit_edge:                                      ; preds = %2
  %.not = icmp eq ptr %0, null
  br i1 %.not, label %13, label %._crit_edge.thread

._crit_edge.thread:                               ; preds = %Vec_IntFree.exit, %._crit_edge
  tail call void @free(ptr noundef nonnull %0) #23
  br label %13

13:                                               ; preds = %._crit_edge, %._crit_edge.thread
  ret void
}